; Function Attrs: mustprogress uwtable
define void @_ZN32pxrInternal_v0_24__pxrReserved__8TsSpline11SetKeyFrameENS_10TsKeyFrameEPNS_10GfIntervalE(ptr nocapture noundef nonnull align 8 dereferenceable(16) %0, ptr noundef %1, ptr noundef %2) local_unnamed_addr #3 align 2 personality ptr @__gxx_personality_v0 {
  %4 = alloca %"class.std::__cxx11::basic_string", align 8
  %5 = alloca %"class.pxrInternal_v0_24__pxrReserved__::TfCallContext", align 8
  %6 = alloca %"class.pxrInternal_v0_24__pxrReserved__::TsKeyFrame", align 8
  %.not = icmp eq ptr %2, null
  br i1 %.not, label %11, label %7

7:                                                ; preds = %3
  store double 0.000000e+00, ptr %2, align 8
  %8 = getelementptr inbounds nuw i8, ptr %2, i64 8
  store i8 0, ptr %8, align 8
  %9 = getelementptr inbounds nuw i8, ptr %2, i64 16
  store double 0.000000e+00, ptr %9, align 8
  %10 = getelementptr inbounds i8, ptr %2, i64 24
  store i8 0, ptr %10, align 8
  br label %11

11:                                               ; preds = %7, %3
  call void @_ZNSt7__cxx1112basic_stringIcSt11char_traitsIcESaIcEEC1Ev(ptr noundef nonnull align 8 dereferenceable(32) %4) #21
  %12 = invoke noundef zeroext i1 @_ZNK32pxrInternal_v0_24__pxrReserved__8TsSpline14CanSetKeyFrameERKNS_10TsKeyFrameEPNSt7__cxx1112basic_stringIcSt11char_traitsIcESaIcEEE(ptr noundef nonnull align 8 dereferenceable(16) %0, ptr noundef nonnull align 8 dereferenceable(72) %1, ptr noundef nonnull %4)
          to label %13 unwind label %19

13:                                               ; preds = %11
  br i1 %12, label %21, label %14

14:                                               ; preds = %13
  store ptr @.str.8, ptr %5, align 8
  %15 = getelementptr inbounds nuw i8, ptr %5, i64 8
  store ptr @__func__._ZN32pxrInternal_v0_24__pxrReserved__8TsSpline11SetKeyFrameENS_10TsKeyFrameEPNS_10GfIntervalE, ptr %15, align 8
  %16 = getelementptr inbounds nuw i8, ptr %5, i64 16
  store i64 233, ptr %16, align 8
  %17 = getelementptr inbounds nuw i8, ptr %5, i64 24
  store ptr @__PRETTY_FUNCTION__._ZN32pxrInternal_v0_24__pxrReserved__8TsSpline11SetKeyFrameENS_10TsKeyFrameEPNS_10GfIntervalE, ptr %17, align 8
  %18 = getelementptr inbounds nuw i8, ptr %5, i64 32
  store i8 0, ptr %18, align 8
  invoke void @_ZN32pxrInternal_v0_24__pxrReserved__18Tf_PostErrorHelperERKNS_13TfCallContextENS_16TfDiagnosticTypeERKNSt7__cxx1112basic_stringIcSt11char_traitsIcESaIcEEE(ptr noundef nonnull align 8 dereferenceable(33) %5, i32 noundef 1, ptr noundef nonnull align 8 dereferenceable(32) %4)
          to label %26 unwind label %19

19:                                               ; preds = %22, %21, %14, %11
  %20 = landingpad { ptr, i32 }
          cleanup
  br label %29

21:                                               ; preds = %13
  invoke void @_ZN32pxrInternal_v0_24__pxrReserved__8TsSpline7_DetachEv(ptr noundef nonnull align 8 dereferenceable(16) %0)
          to label %22 unwind label %19

22:                                               ; preds = %21
  %23 = load ptr, ptr %0, align 8
  invoke void @_ZN32pxrInternal_v0_24__pxrReserved__10TsKeyFrameC1ERKS0_(ptr noundef nonnull align 8 dereferenceable(72) %6, ptr noundef nonnull align 8 dereferenceable(72) %1)
          to label %24 unwind label %19

24:                                               ; preds = %22
  invoke void @_ZN32pxrInternal_v0_24__pxrReserved__18TsSpline_KeyFrames11SetKeyFrameENS_10TsKeyFrameEPNS_10GfIntervalE(ptr noundef nonnull align 8 dereferenceable(136) %23, ptr noundef nonnull %6, ptr noundef %2)
          to label %25 unwind label %27

25:                                               ; preds = %24
  call void @_ZN32pxrInternal_v0_24__pxrReserved__10TsKeyFrameD1Ev(ptr noundef nonnull align 8 dereferenceable(72) %6) #21
  br label %26

26:                                               ; preds = %14, %25
  call void @_ZNSt7__cxx1112basic_stringIcSt11char_traitsIcESaIcEED1Ev(ptr noundef nonnull align 8 dereferenceable(32) %4) #21
  ret void

27:                                               ; preds = %24
  %28 = landingpad { ptr, i32 }
          cleanup
  call void @_ZN32pxrInternal_v0_24__pxrReserved__10TsKeyFrameD1Ev(ptr noundef nonnull align 8 dereferenceable(72) %6) #21
  br label %29

29:                                               ; preds = %27, %19
  %.pn = phi { ptr, i32 } [ %28, %27 ], [ %20, %19 ]
  call void @_ZNSt7__cxx1112basic_stringIcSt11char_traitsIcESaIcEED1Ev(ptr noundef nonnull align 8 dereferenceable(32) %4) #21
  resume { ptr, i32 } %.pn
}